target datalayout = "e-m:e-p270:32:32-p271:32:32-p272:64:64-i64:64-i128:128-f80:128-n8:16:32:64-S128"
target triple = "x86_64-pc-linux-gnu"

%struct.batch_options = type { i32, i32, i32, i32, i32, i32, i32, i8, i8, ptr }
%struct.option = type { i32, i32, ptr, ptr, ptr, ptr, i32, ptr, i64, ptr, i64, ptr }

@.str.17 = private unnamed_addr constant [6 x i8] c"batch\00", align 1
@.str.20 = private unnamed_addr constant [12 x i8] c"batch-check\00", align 1
@.str.24 = private unnamed_addr constant [14 x i8] c"batch-command\00", align 1
@.str.61 = private unnamed_addr constant [19 x i8] c"builtin/cat-file.c\00", align 1
@.str.62 = private unnamed_addr constant [41 x i8] c"option callback does not expect negation\00", align 1
@.str.63 = private unnamed_addr constant [39 x i8] c"only one batch option may be specified\00", align 1
@.str.64 = private unnamed_addr constant [34 x i8] c"%s given to batch-option-callback\00", align 1
@.str.66 = private unnamed_addr constant [1 x i8] zeroinitializer, align 1
@git_gettext_enabled = external global i32, align 4

; Function Attrs: inlinehint nounwind uwtable
define internal i32 @const_error() #4 {
  ret i32 -1
}

; Function Attrs: inlinehint nounwind uwtable
define internal ptr @_(ptr noundef %0) #4 {
  %2 = alloca ptr, align 8
  %3 = alloca ptr, align 8
  store ptr %0, ptr %3, align 8, !tbaa !11
  %4 = load ptr, ptr %3, align 8, !tbaa !11
  %5 = load i8, ptr %4, align 1, !tbaa !64
  %6 = icmp ne i8 %5, 0
  br i1 %6, label %8, label %7

7:                                                ; preds = %1
  store ptr @.str.66, ptr %2, align 8
  br label %16

8:                                                ; preds = %1
  %9 = load i32, ptr @git_gettext_enabled, align 4, !tbaa !4
  %10 = icmp ne i32 %9, 0
  br i1 %10, label %13, label %11

11:                                               ; preds = %8
  %12 = load ptr, ptr %3, align 8, !tbaa !11
  store ptr %12, ptr %2, align 8
  br label %16

13:                                               ; preds = %8
  %14 = load ptr, ptr %3, align 8, !tbaa !11
  %15 = call ptr @dcgettext(ptr noundef null, ptr noundef %14, i32 noundef 5) #9
  store ptr %15, ptr %2, align 8
  br label %16

16:                                               ; preds = %13, %11, %7
  %17 = load ptr, ptr %2, align 8
  ret ptr %17
}

; Function Attrs: nounwind uwtable
define internal i32 @batch_option_callback(ptr noundef %0, ptr noundef %1, i32 noundef %2) #0 {
  %4 = alloca i32, align 4
  %5 = alloca ptr, align 8
  %6 = alloca ptr, align 8
  %7 = alloca i32, align 4
  %8 = alloca ptr, align 8
  %9 = alloca i32, align 4
  store ptr %0, ptr %5, align 8, !tbaa !55
  store ptr %1, ptr %6, align 8, !tbaa !11
  store i32 %2, ptr %7, align 4, !tbaa !4
  call void @llvm.lifetime.start.p0(i64 8, ptr %8) #9
  %10 = load ptr, ptr %5, align 8, !tbaa !55
  %11 = getelementptr inbounds nuw %struct.option, ptr %10, i32 0, i32 3
  %12 = load ptr, ptr %11, align 8, !tbaa !21
  store ptr %12, ptr %8, align 8, !tbaa !57
  br label %13

13:                                               ; preds = %3
  %14 = load i32, ptr %7, align 4, !tbaa !4
  %15 = icmp ne i32 %14, 0
  br i1 %15, label %16, label %17

16:                                               ; preds = %13
  call void (ptr, i32, ptr, ...) @BUG_fl(ptr noundef @.str.61, i32 noundef 908, ptr noundef @.str.62) #10
  unreachable

17:                                               ; preds = %13
  br label %18

18:                                               ; preds = %17
  br label %19

19:                                               ; preds = %18
  %20 = load ptr, ptr %8, align 8, !tbaa !57
  %21 = getelementptr inbounds nuw %struct.batch_options, ptr %20, i32 0, i32 0
  %22 = load i32, ptr %21, align 8, !tbaa !32
  %23 = icmp ne i32 %22, 0
  br i1 %23, label %24, label %28

24:                                               ; preds = %19
  %25 = call ptr @_(ptr noundef @.str.63)
  %26 = call i32 (ptr, ...) @error(ptr noundef %25)
  %27 = call i32 @const_error()
  store i32 %27, ptr %4, align 4
  store i32 1, ptr %9, align 4
  br label %67

28:                                               ; preds = %19
  %29 = load ptr, ptr %8, align 8, !tbaa !57
  %30 = getelementptr inbounds nuw %struct.batch_options, ptr %29, i32 0, i32 0
  store i32 1, ptr %30, align 8, !tbaa !32
  %31 = load ptr, ptr %5, align 8, !tbaa !55
  %32 = getelementptr inbounds nuw %struct.option, ptr %31, i32 0, i32 2
  %33 = load ptr, ptr %32, align 8, !tbaa !20
  %34 = call i32 @strcmp(ptr noundef %33, ptr noundef @.str.17) #11
  %35 = icmp ne i32 %34, 0
  br i1 %35, label %39, label %36

36:                                               ; preds = %28
  %37 = load ptr, ptr %8, align 8, !tbaa !57
  %38 = getelementptr inbounds nuw %struct.batch_options, ptr %37, i32 0, i32 2
  store i32 0, ptr %38, align 8, !tbaa !59
  br label %63

39:                                               ; preds = %28
  %40 = load ptr, ptr %5, align 8, !tbaa !55
  %41 = getelementptr inbounds nuw %struct.option, ptr %40, i32 0, i32 2
  %42 = load ptr, ptr %41, align 8, !tbaa !20
  %43 = call i32 @strcmp(ptr noundef %42, ptr noundef @.str.20) #11
  %44 = icmp ne i32 %43, 0
  br i1 %44, label %48, label %45

45:                                               ; preds = %39
  %46 = load ptr, ptr %8, align 8, !tbaa !57
  %47 = getelementptr inbounds nuw %struct.batch_options, ptr %46, i32 0, i32 2
  store i32 1, ptr %47, align 8, !tbaa !59
  br label %62

48:                                               ; preds = %39
  %49 = load ptr, ptr %5, align 8, !tbaa !55
  %50 = getelementptr inbounds nuw %struct.option, ptr %49, i32 0, i32 2
  %51 = load ptr, ptr %50, align 8, !tbaa !20
  %52 = call i32 @strcmp(ptr noundef %51, ptr noundef @.str.24) #11
  %53 = icmp ne i32 %52, 0
  br i1 %53, label %57, label %54

54:                                               ; preds = %48
  %55 = load ptr, ptr %8, align 8, !tbaa !57
  %56 = getelementptr inbounds nuw %struct.batch_options, ptr %55, i32 0, i32 2
  store i32 2, ptr %56, align 8, !tbaa !59
  br label %61

57:                                               ; preds = %48
  %58 = load ptr, ptr %5, align 8, !tbaa !55
  %59 = getelementptr inbounds nuw %struct.option, ptr %58, i32 0, i32 2
  %60 = load ptr, ptr %59, align 8, !tbaa !20
  call void (ptr, i32, ptr, ...) @BUG_fl(ptr noundef @.str.61, i32 noundef 923, ptr noundef @.str.64, ptr noundef %60) #10
  unreachable

61:                                               ; preds = %54
  br label %62

62:                                               ; preds = %61, %45
  br label %63

63:                                               ; preds = %62, %36
  %64 = load ptr, ptr %6, align 8, !tbaa !11
  %65 = load ptr, ptr %8, align 8, !tbaa !57
  %66 = getelementptr inbounds nuw %struct.batch_options, ptr %65, i32 0, i32 9
  store ptr %64, ptr %66, align 8, !tbaa !60
  store i32 0, ptr %4, align 4
  store i32 1, ptr %9, align 4
  br label %67

67:                                               ; preds = %63, %24
  call void @llvm.lifetime.end.p0(i64 8, ptr %8) #9
  %68 = load i32, ptr %4, align 4
  ret i32 %68
}