; Function Attrs: nounwind uwtable
define internal range(i32 -1, 1) i32 @batch_option_callback(ptr noundef readonly captures(none) %0, ptr noundef %1, i32 noundef %2) #0 {
  %4 = getelementptr inbounds nuw i8, ptr %0, i64 16
  %5 = load ptr, ptr %4, align 8, !tbaa !16
  %.not = icmp eq i32 %2, 0
  br i1 %.not, label %7, label %6

6:                                                ; preds = %3
  tail call void (ptr, i32, ptr, ...) @BUG_fl(ptr noundef nonnull @.str.61, i32 noundef 908, ptr noundef nonnull @.str.62) #15
  unreachable

7:                                                ; preds = %3
  %8 = load i32, ptr %5, align 8, !tbaa !27
  %.not13 = icmp eq i32 %8, 0
  br i1 %.not13, label %14, label %9

9:                                                ; preds = %7
  %10 = load i32, ptr @git_gettext_enabled, align 4, !tbaa !4
  %.not4.i = icmp eq i32 %10, 0
  br i1 %.not4.i, label %_.exit, label %11

11:                                               ; preds = %9
  %12 = tail call ptr @dcgettext(ptr noundef null, ptr noundef nonnull @.str.63, i32 noundef 5) #14
  br label %_.exit

_.exit:                                           ; preds = %9, %11
  %.0.i = phi ptr [ %12, %11 ], [ @.str.63, %9 ]
  %13 = tail call i32 (ptr, ...) @error(ptr noundef %.0.i) #14
  br label %26

14:                                               ; preds = %7
  store i32 1, ptr %5, align 8, !tbaa !27
  %15 = getelementptr inbounds nuw i8, ptr %0, i64 8
  %16 = load ptr, ptr %15, align 8, !tbaa !15
  %17 = tail call i32 @strcmp(ptr noundef nonnull dereferenceable(1) %16, ptr noundef nonnull dereferenceable(6) @.str.17) #16
  %.not14 = icmp eq i32 %17, 0
  br i1 %.not14, label %23, label %18

18:                                               ; preds = %14
  %19 = tail call i32 @strcmp(ptr noundef nonnull dereferenceable(1) %16, ptr noundef nonnull dereferenceable(12) @.str.20) #16
  %.not15 = icmp eq i32 %19, 0
  br i1 %.not15, label %23, label %20

20:                                               ; preds = %18
  %21 = tail call i32 @strcmp(ptr noundef nonnull dereferenceable(1) %16, ptr noundef nonnull dereferenceable(14) @.str.24) #16
  %.not16 = icmp eq i32 %21, 0
  br i1 %.not16, label %23, label %22

22:                                               ; preds = %20
  tail call void (ptr, i32, ptr, ...) @BUG_fl(ptr noundef nonnull @.str.61, i32 noundef 923, ptr noundef nonnull @.str.64, ptr noundef nonnull %16) #15
  unreachable

23:                                               ; preds = %20, %18, %14
  %.sink = phi i32 [ 0, %14 ], [ 1, %18 ], [ 2, %20 ]
  %24 = getelementptr inbounds nuw i8, ptr %5, i64 8
  store i32 %.sink, ptr %24, align 8, !tbaa !59
  %25 = getelementptr inbounds nuw i8, ptr %5, i64 32
  store ptr %1, ptr %25, align 8, !tbaa !57
  br label %26

26:                                               ; preds = %23, %_.exit
  %.0 = phi i32 [ -1, %_.exit ], [ 0, %23 ]
  ret i32 %.0
}